target datalayout = "e-m:e-p270:32:32-p271:32:32-p272:64:64-i64:64-i128:128-f80:128-n8:16:32:64-S128"
target triple = "x86_64-pc-linux-gnu"

; Function Attrs: mustprogress nounwind uwtable
define dso_local noundef i64 @_ZN4llvm5APInt14tcSubtractPartEPmmj(ptr noundef %0, i64 noundef %1, i32 noundef %2) #0 align 2 {
  %4 = alloca i64, align 8
  %5 = alloca ptr, align 8
  %6 = alloca i64, align 8
  %7 = alloca i32, align 4
  %8 = alloca i32, align 4
  %9 = alloca i64, align 8
  store ptr %0, ptr %5, align 8
  store i64 %1, ptr %6, align 8
  store i32 %2, ptr %7, align 4
  store i32 0, ptr %8, align 4
  br label %10

10:                                               ; preds = %32, %3
  %11 = load i32, ptr %8, align 4
  %12 = load i32, ptr %7, align 4
  %13 = icmp ult i32 %11, %12
  br i1 %13, label %14, label %35

14:                                               ; preds = %10
  %15 = load ptr, ptr %5, align 8
  %16 = load i32, ptr %8, align 4
  %17 = zext i32 %16 to i64
  %18 = getelementptr inbounds i64, ptr %15, i64 %17
  %19 = load i64, ptr %18, align 8
  store i64 %19, ptr %9, align 8
  %20 = load i64, ptr %6, align 8
  %21 = load ptr, ptr %5, align 8
  %22 = load i32, ptr %8, align 4
  %23 = zext i32 %22 to i64
  %24 = getelementptr inbounds i64, ptr %21, i64 %23
  %25 = load i64, ptr %24, align 8
  %26 = sub i64 %25, %20
  store i64 %26, ptr %24, align 8
  %27 = load i64, ptr %6, align 8
  %28 = load i64, ptr %9, align 8
  %29 = icmp ule i64 %27, %28
  br i1 %29, label %30, label %31

30:                                               ; preds = %14
  store i64 0, ptr %4, align 8
  br label %36

31:                                               ; preds = %14
  store i64 1, ptr %6, align 8
  br label %32

32:                                               ; preds = %31
  %33 = load i32, ptr %8, align 4
  %34 = add i32 %33, 1
  store i32 %34, ptr %8, align 4
  br label %10, !llvm.loop !11

35:                                               ; preds = %10
  store i64 1, ptr %4, align 8
  br label %36

36:                                               ; preds = %35, %30
  %37 = load i64, ptr %4, align 8
  ret i64 %37
}